target datalayout = "e-m:e-p270:32:32-p271:32:32-p272:64:64-i64:64-i128:128-f80:128-n8:16:32:64-S128"
target triple = "x86_64-pc-linux-gnu"

%struct.GCtab = type { %struct.GCRef, i8, i8, i8, i8, %struct.MRef, %struct.GCRef, %struct.GCRef, %struct.MRef, i32, i32, %struct.MRef }
%struct.GCRef = type { i64 }
%struct.MRef = type { i64 }
%struct.Node = type { %union.TValue, %union.TValue, %struct.MRef }
%union.TValue = type { i64 }

; Function Attrs: alwaysinline nounwind uwtable
define internal void @setintV(ptr noundef %0, i32 noundef %1) #2 {
  %3 = alloca ptr, align 8
  %4 = alloca i32, align 4
  store ptr %0, ptr %3, align 8, !tbaa !31
  store i32 %1, ptr %4, align 4, !tbaa !9
  %5 = load i32, ptr %4, align 4, !tbaa !9
  %6 = sitofp i32 %5 to double
  %7 = load ptr, ptr %3, align 8, !tbaa !31
  store double %6, ptr %7, align 8, !tbaa !32
  ret void
}

; Function Attrs: nounwind uwtable
define hidden i32 @lj_tab_next(ptr noundef %0, ptr noundef %1, ptr noundef %2) #0 {
  %4 = alloca i32, align 4
  %5 = alloca ptr, align 8
  %6 = alloca ptr, align 8
  %7 = alloca ptr, align 8
  %8 = alloca i32, align 4
  %9 = alloca ptr, align 8
  %10 = alloca i32, align 4
  %11 = alloca ptr, align 8
  store ptr %0, ptr %5, align 8, !tbaa !11
  store ptr %1, ptr %6, align 8, !tbaa !31
  store ptr %2, ptr %7, align 8, !tbaa !31
  call void @llvm.lifetime.start.p0(i64 4, ptr %8) #9
  %12 = load ptr, ptr %5, align 8, !tbaa !11
  %13 = load ptr, ptr %6, align 8, !tbaa !31
  %14 = call i32 @lj_tab_keyindex(ptr noundef %12, ptr noundef %13)
  store i32 %14, ptr %8, align 4, !tbaa !9
  br label %15

15:                                               ; preds = %50, %3
  %16 = load i32, ptr %8, align 4, !tbaa !9
  %17 = load ptr, ptr %5, align 8, !tbaa !11
  %18 = getelementptr inbounds nuw %struct.GCtab, ptr %17, i32 0, i32 9
  %19 = load i32, ptr %18, align 8, !tbaa !23
  %20 = icmp ult i32 %16, %19
  br i1 %20, label %21, label %53

21:                                               ; preds = %15
  call void @llvm.lifetime.start.p0(i64 8, ptr %9) #9
  %22 = load ptr, ptr %5, align 8, !tbaa !11
  %23 = getelementptr inbounds nuw %struct.GCtab, ptr %22, i32 0, i32 5
  %24 = getelementptr inbounds nuw %struct.MRef, ptr %23, i32 0, i32 0
  %25 = load i64, ptr %24, align 8, !tbaa !21
  %26 = inttoptr i64 %25 to ptr
  %27 = load i32, ptr %8, align 4, !tbaa !9
  %28 = zext i32 %27 to i64
  %29 = getelementptr inbounds nuw %union.TValue, ptr %26, i64 %28
  store ptr %29, ptr %9, align 8, !tbaa !31
  %30 = load ptr, ptr %9, align 8, !tbaa !31
  %31 = load i64, ptr %30, align 8, !tbaa !32
  %32 = icmp eq i64 %31, -1
  %33 = xor i1 %32, true
  %34 = xor i1 %33, true
  %35 = xor i1 %34, true
  %36 = zext i1 %35 to i32
  %37 = sext i32 %36 to i64
  %38 = call i64 @llvm.expect.i64(i64 %37, i64 1)
  %39 = icmp ne i64 %38, 0
  br i1 %39, label %40, label %46

40:                                               ; preds = %21
  %41 = load ptr, ptr %7, align 8, !tbaa !31
  %42 = load i32, ptr %8, align 4, !tbaa !9
  call void @setintV(ptr noundef %41, i32 noundef %42)
  %43 = load ptr, ptr %7, align 8, !tbaa !31
  %44 = getelementptr inbounds %union.TValue, ptr %43, i64 1
  %45 = load ptr, ptr %9, align 8, !tbaa !31
  call void @llvm.memcpy.p0.p0.i64(ptr align 8 %44, ptr align 8 %45, i64 8, i1 false), !tbaa.struct !40
  store i32 1, ptr %4, align 4
  store i32 1, ptr %10, align 4
  br label %47

46:                                               ; preds = %21
  store i32 0, ptr %10, align 4
  br label %47

47:                                               ; preds = %46, %40
  call void @llvm.lifetime.end.p0(i64 8, ptr %9) #9
  %48 = load i32, ptr %10, align 4
  switch i32 %48, label %98 [
    i32 0, label %49
  ]

49:                                               ; preds = %47
  br label %50

50:                                               ; preds = %49
  %51 = load i32, ptr %8, align 4, !tbaa !9
  %52 = add i32 %51, 1
  store i32 %52, ptr %8, align 4, !tbaa !9
  br label %15, !llvm.loop !83

53:                                               ; preds = %15
  %54 = load ptr, ptr %5, align 8, !tbaa !11
  %55 = getelementptr inbounds nuw %struct.GCtab, ptr %54, i32 0, i32 9
  %56 = load i32, ptr %55, align 8, !tbaa !23
  %57 = load i32, ptr %8, align 4, !tbaa !9
  %58 = sub i32 %57, %56
  store i32 %58, ptr %8, align 4, !tbaa !9
  br label %59

59:                                               ; preds = %91, %53
  %60 = load i32, ptr %8, align 4, !tbaa !9
  %61 = load ptr, ptr %5, align 8, !tbaa !11
  %62 = getelementptr inbounds nuw %struct.GCtab, ptr %61, i32 0, i32 10
  %63 = load i32, ptr %62, align 4, !tbaa !13
  %64 = icmp ule i32 %60, %63
  br i1 %64, label %65, label %94

65:                                               ; preds = %59
  call void @llvm.lifetime.start.p0(i64 8, ptr %11) #9
  %66 = load ptr, ptr %5, align 8, !tbaa !11
  %67 = getelementptr inbounds nuw %struct.GCtab, ptr %66, i32 0, i32 8
  %68 = getelementptr inbounds nuw %struct.MRef, ptr %67, i32 0, i32 0
  %69 = load i64, ptr %68, align 8, !tbaa !29
  %70 = inttoptr i64 %69 to ptr
  %71 = load i32, ptr %8, align 4, !tbaa !9
  %72 = zext i32 %71 to i64
  %73 = getelementptr inbounds nuw %struct.Node, ptr %70, i64 %72
  store ptr %73, ptr %11, align 8, !tbaa !27
  %74 = load ptr, ptr %11, align 8, !tbaa !27
  %75 = getelementptr inbounds nuw %struct.Node, ptr %74, i32 0, i32 0
  %76 = load i64, ptr %75, align 8, !tbaa !32
  %77 = icmp eq i64 %76, -1
  br i1 %77, label %87, label %78

78:                                               ; preds = %65
  %79 = load ptr, ptr %7, align 8, !tbaa !31
  %80 = getelementptr inbounds %union.TValue, ptr %79, i64 0
  %81 = load ptr, ptr %11, align 8, !tbaa !27
  %82 = getelementptr inbounds nuw %struct.Node, ptr %81, i32 0, i32 1
  call void @llvm.memcpy.p0.p0.i64(ptr align 8 %80, ptr align 8 %82, i64 8, i1 false), !tbaa.struct !40
  %83 = load ptr, ptr %7, align 8, !tbaa !31
  %84 = getelementptr inbounds %union.TValue, ptr %83, i64 1
  %85 = load ptr, ptr %11, align 8, !tbaa !27
  %86 = getelementptr inbounds nuw %struct.Node, ptr %85, i32 0, i32 0
  call void @llvm.memcpy.p0.p0.i64(ptr align 8 %84, ptr align 8 %86, i64 8, i1 false), !tbaa.struct !40
  store i32 1, ptr %4, align 4
  store i32 1, ptr %10, align 4
  br label %88

87:                                               ; preds = %65
  store i32 0, ptr %10, align 4
  br label %88

88:                                               ; preds = %87, %78
  call void @llvm.lifetime.end.p0(i64 8, ptr %11) #9
  %89 = load i32, ptr %10, align 4
  switch i32 %89, label %98 [
    i32 0, label %90
  ]

90:                                               ; preds = %88
  br label %91

91:                                               ; preds = %90
  %92 = load i32, ptr %8, align 4, !tbaa !9
  %93 = add i32 %92, 1
  store i32 %93, ptr %8, align 4, !tbaa !9
  br label %59, !llvm.loop !84

94:                                               ; preds = %59
  %95 = load i32, ptr %8, align 4, !tbaa !9
  %96 = icmp slt i32 %95, 0
  %97 = select i1 %96, i32 -1, i32 0
  store i32 %97, ptr %4, align 4
  store i32 1, ptr %10, align 4
  br label %98

98:                                               ; preds = %94, %88, %47
  call void @llvm.lifetime.end.p0(i64 4, ptr %8) #9
  %99 = load i32, ptr %4, align 4
  ret i32 %99
}