; Function Attrs: nounwind uwtable
define hidden range(i32 -1, 2) i32 @lj_tab_next(ptr noundef readonly captures(none) %0, ptr noundef %1, ptr noundef writeonly captures(none) %2) local_unnamed_addr #0 {
  %4 = tail call i32 @lj_tab_keyindex(ptr noundef %0, ptr noundef %1)
  %5 = getelementptr inbounds nuw i8, ptr %0, i64 48
  %6 = load i32, ptr %5, align 8, !tbaa !4
  %7 = icmp ult i32 %4, %6
  br i1 %7, label %.lr.ph, label %._crit_edge

.lr.ph:                                           ; preds = %3
  %8 = getelementptr inbounds nuw i8, ptr %0, i64 16
  %9 = load i64, ptr %8, align 8, !tbaa !12
  %10 = inttoptr i64 %9 to ptr
  %11 = zext i32 %4 to i64
  %wide.trip.count = zext i32 %6 to i64
  br label %12

12:                                               ; preds = %.lr.ph, %.critedge
  %indvars.iv = phi i64 [ %11, %.lr.ph ], [ %indvars.iv.next, %.critedge ]
  %13 = getelementptr inbounds nuw %union.TValue, ptr %10, i64 %indvars.iv
  %14 = load i64, ptr %13, align 8, !tbaa !13
  %.not33 = icmp eq i64 %14, -1
  br i1 %.not33, label %.critedge, label %15, !prof !62

15:                                               ; preds = %12
  %16 = getelementptr inbounds nuw %union.TValue, ptr %10, i64 %indvars.iv
  %17 = trunc nuw i64 %indvars.iv to i32
  %18 = sitofp i32 %17 to double
  store double %18, ptr %2, align 8, !tbaa !13
  %19 = getelementptr inbounds nuw i8, ptr %2, i64 8
  %20 = load i64, ptr %16, align 8, !tbaa !13
  store i64 %20, ptr %19, align 8, !tbaa !13
  br label %38

.critedge:                                        ; preds = %12
  %indvars.iv.next = add nuw nsw i64 %indvars.iv, 1
  %exitcond.not = icmp eq i64 %indvars.iv.next, %wide.trip.count
  br i1 %exitcond.not, label %._crit_edge, label %12, !llvm.loop !67

._crit_edge:                                      ; preds = %.critedge, %3
  %.030.lcssa = phi i32 [ %4, %3 ], [ %6, %.critedge ]
  %21 = sub nuw i32 %.030.lcssa, %6
  %22 = getelementptr inbounds nuw i8, ptr %0, i64 52
  %23 = load i32, ptr %22, align 4, !tbaa !14
  %.not45 = icmp ugt i32 %21, %23
  br i1 %.not45, label %._crit_edge49, label %.lr.ph48

.lr.ph48:                                         ; preds = %._crit_edge
  %24 = getelementptr inbounds nuw i8, ptr %0, i64 40
  %25 = load i64, ptr %24, align 8, !tbaa !15
  %26 = inttoptr i64 %25 to ptr
  br label %27

27:                                               ; preds = %.lr.ph48, %.critedge35
  %.13146 = phi i32 [ %21, %.lr.ph48 ], [ %37, %.critedge35 ]
  %28 = zext i32 %.13146 to i64
  %29 = getelementptr inbounds nuw %struct.Node, ptr %26, i64 %28
  %30 = load i64, ptr %29, align 8, !tbaa !13
  %31 = icmp eq i64 %30, -1
  br i1 %31, label %.critedge35, label %32

32:                                               ; preds = %27
  %33 = getelementptr inbounds nuw i8, ptr %29, i64 8
  %34 = load i64, ptr %33, align 8, !tbaa !13
  store i64 %34, ptr %2, align 8, !tbaa !13
  %35 = getelementptr inbounds nuw i8, ptr %2, i64 8
  %36 = load i64, ptr %29, align 8, !tbaa !13
  store i64 %36, ptr %35, align 8, !tbaa !13
  br label %38

.critedge35:                                      ; preds = %27
  %37 = add i32 %.13146, 1
  %.not = icmp ugt i32 %37, %23
  br i1 %.not, label %._crit_edge49, label %27, !llvm.loop !68

._crit_edge49:                                    ; preds = %.critedge35, %._crit_edge
  %.131.lcssa = phi i32 [ %21, %._crit_edge ], [ %37, %.critedge35 ]
  %.131.lobit = ashr i32 %.131.lcssa, 31
  br label %38

38:                                               ; preds = %32, %15, %._crit_edge49
  %.2 = phi i32 [ 1, %15 ], [ 1, %32 ], [ %.131.lobit, %._crit_edge49 ]
  ret i32 %.2
}